; ModuleID = '62/2472.c'
source_filename = "62/2472.c"
target datalayout = "e-m:e-p270:32:32-p271:32:32-p272:64:64-i64:64-f80:128-n8:16:32:64-S128"
target triple = "x86_64-pc-linux-gnu"

; Function Attrs: noinline nounwind uwtable
define dso_local i32 @main() #0 {
  %1 = alloca i32, align 4
  %2 = alloca [255 x i8], align 16
  %3 = alloca [255 x i8], align 16
  %4 = alloca i32, align 4
  %5 = alloca i32, align 4
  store i32 0, i32* %1, align 4
  store i32 0, i32* %5, align 4
  %6 = getelementptr inbounds [255 x i8], [255 x i8]* %2, i64 0, i64 0
  %7 = call i32 (i8*, ...) bitcast (i32 (...)* @gets to i32 (i8*, ...)*)(i8* %6)
  store i32 0, i32* %4, align 4
  br label %8

8:                                                ; preds = %73, %0
  %9 = load i32, i32* %4, align 4
  %10 = sext i32 %9 to i64
  %11 = getelementptr inbounds [255 x i8], [255 x i8]* %2, i64 0, i64 %10
  %12 = load i8, i8* %11, align 1
  %13 = icmp ne i8 %12, 0
  br i1 %13, label %14, label %76

14:                                               ; preds = %8
  %15 = load i32, i32* %4, align 4
  %16 = sext i32 %15 to i64
  %17 = getelementptr inbounds [255 x i8], [255 x i8]* %2, i64 0, i64 %16
  %18 = load i8, i8* %17, align 1
  %19 = sext i8 %18 to i32
  %20 = icmp ne i32 %19, 32
  br i1 %20, label %21, label %31

21:                                               ; preds = %14
  %22 = load i32, i32* %4, align 4
  %23 = sext i32 %22 to i64
  %24 = getelementptr inbounds [255 x i8], [255 x i8]* %2, i64 0, i64 %23
  %25 = load i8, i8* %24, align 1
  %26 = load i32, i32* %5, align 4
  %27 = sext i32 %26 to i64
  %28 = getelementptr inbounds [255 x i8], [255 x i8]* %3, i64 0, i64 %27
  store i8 %25, i8* %28, align 1
  %29 = load i32, i32* %5, align 4
  %30 = add nsw i32 %29, 1
  store i32 %30, i32* %5, align 4
  br label %72

31:                                               ; preds = %14
  %32 = load i32, i32* %4, align 4
  %33 = sext i32 %32 to i64
  %34 = getelementptr inbounds [255 x i8], [255 x i8]* %2, i64 0, i64 %33
  %35 = load i8, i8* %34, align 1
  %36 = sext i8 %35 to i32
  %37 = icmp eq i32 %36, 32
  br i1 %37, label %38, label %59

38:                                               ; preds = %31
  %39 = load i32, i32* %4, align 4
  %40 = sub nsw i32 %39, 1
  %41 = sext i32 %40 to i64
  %42 = getelementptr inbounds [255 x i8], [255 x i8]* %2, i64 0, i64 %41
  %43 = load i8, i8* %42, align 1
  %44 = sext i8 %43 to i32
  %45 = icmp ne i32 %44, 32
  br i1 %45, label %46, label %59

46:                                               ; preds = %38
  %47 = load i32, i32* %4, align 4
  %48 = icmp sgt i32 %47, 0
  br i1 %48, label %49, label %59

49:                                               ; preds = %46
  %50 = load i32, i32* %4, align 4
  %51 = sext i32 %50 to i64
  %52 = getelementptr inbounds [255 x i8], [255 x i8]* %2, i64 0, i64 %51
  %53 = load i8, i8* %52, align 1
  %54 = load i32, i32* %5, align 4
  %55 = sext i32 %54 to i64
  %56 = getelementptr inbounds [255 x i8], [255 x i8]* %3, i64 0, i64 %55
  store i8 %53, i8* %56, align 1
  %57 = load i32, i32* %5, align 4
  %58 = add nsw i32 %57, 1
  store i32 %58, i32* %5, align 4
  br label %71

59:                                               ; preds = %46, %38, %31
  %60 = load i32, i32* %4, align 4
  %61 = icmp eq i32 %60, 0
  br i1 %61, label %62, label %70

62:                                               ; preds = %59
  %63 = load i32, i32* %4, align 4
  %64 = sext i32 %63 to i64
  %65 = getelementptr inbounds [255 x i8], [255 x i8]* %2, i64 0, i64 %64
  %66 = load i8, i8* %65, align 1
  %67 = sext i8 %66 to i32
  %68 = icmp eq i32 %67, 32
  br i1 %68, label %69, label %70

69:                                               ; preds = %62
  br label %73

70:                                               ; preds = %62, %59
  br label %71

71:                                               ; preds = %70, %49
  br label %72

72:                                               ; preds = %71, %21
  br label %73

73:                                               ; preds = %72, %69
  %74 = load i32, i32* %4, align 4
  %75 = add nsw i32 %74, 1
  store i32 %75, i32* %4, align 4
  br label %8

76:                                               ; preds = %8
  %77 = load i32, i32* %5, align 4
  %78 = sext i32 %77 to i64
  %79 = getelementptr inbounds [255 x i8], [255 x i8]* %3, i64 0, i64 %78
  store i8 0, i8* %79, align 1
  %80 = getelementptr inbounds [255 x i8], [255 x i8]* %3, i64 0, i64 0
  %81 = call i32 @puts(i8* %80)
  ret i32 0
}

declare dso_local i32 @gets(...) #1

declare dso_local i32 @puts(i8*) #1


!llvm.module.flags = !{!0}
!llvm.ident = !{!1}

!0 = !{i32 1, !"wchar_size", i32 4}
!1 = !{!"clang version 10.0.0-4ubuntu1 "}
