; ModuleID = 'source-C-CXX/61/2472.c'
source_filename = "source-C-CXX/61/2472.c"
target datalayout = "e-m:e-p270:32:32-p271:32:32-p272:64:64-i64:64-f80:128-n8:16:32:64-S128"
target triple = "x86_64-pc-linux-gnu"

; Function Attrs: nounwind sspstrong uwtable
define dso_local i32 @main() local_unnamed_addr #0 {
  %1 = alloca [255 x i8], align 16
  %2 = alloca [255 x i8], align 16
  %3 = getelementptr inbounds [255 x i8], [255 x i8]* %1, i64 0, i64 0
  call void @llvm.lifetime.start.p0i8(i64 255, i8* nonnull %3) #4
  %4 = getelementptr inbounds [255 x i8], [255 x i8]* %2, i64 0, i64 0
  call void @llvm.lifetime.start.p0i8(i64 255, i8* nonnull %4) #4
  %5 = call i32 (i8*, ...) bitcast (i32 (...)* @gets to i32 (i8*, ...)*)(i8* nonnull %3) #4
  br label %6

6:                                                ; preds = %23, %0
  %7 = phi i64 [ %25, %23 ], [ 0, %0 ]
  %8 = phi i32 [ %24, %23 ], [ 0, %0 ]
  %9 = getelementptr inbounds [255 x i8], [255 x i8]* %1, i64 0, i64 %7
  %10 = load i8, i8* %9, align 1, !tbaa !5
  switch i8 %10, label %18 [
    i8 0, label %26
    i8 32, label %11
  ]

11:                                               ; preds = %6
  %12 = add nsw i64 %7, -1
  %13 = getelementptr inbounds [255 x i8], [255 x i8]* %1, i64 0, i64 %12
  %14 = load i8, i8* %13, align 1, !tbaa !5
  %15 = icmp ne i8 %14, 32
  %16 = icmp ne i64 %7, 0
  %17 = select i1 %15, i1 %16, i1 false
  br i1 %17, label %18, label %23

18:                                               ; preds = %11, %6
  %19 = phi i8 [ %10, %6 ], [ 32, %11 ]
  %20 = sext i32 %8 to i64
  %21 = getelementptr inbounds [255 x i8], [255 x i8]* %2, i64 0, i64 %20
  store i8 %19, i8* %21, align 1, !tbaa !5
  %22 = add nsw i32 %8, 1
  br label %23

23:                                               ; preds = %18, %11
  %24 = phi i32 [ %8, %11 ], [ %22, %18 ]
  %25 = add nuw i64 %7, 1
  br label %6, !llvm.loop !8

26:                                               ; preds = %6
  %27 = sext i32 %8 to i64
  %28 = getelementptr inbounds [255 x i8], [255 x i8]* %2, i64 0, i64 %27
  store i8 0, i8* %28, align 1, !tbaa !5
  %29 = call i32 @puts(i8* nonnull %4)
  call void @llvm.lifetime.end.p0i8(i64 255, i8* nonnull %4) #4
  call void @llvm.lifetime.end.p0i8(i64 255, i8* nonnull %3) #4
  ret i32 0
}

; Function Attrs: argmemonly mustprogress nofree nosync nounwind willreturn
declare void @llvm.lifetime.start.p0i8(i64 immarg, i8* nocapture) #1

declare i32 @gets(...) local_unnamed_addr #2

; Function Attrs: nofree nounwind
declare noundef i32 @puts(i8* nocapture noundef readonly) local_unnamed_addr #3

; Function Attrs: argmemonly mustprogress nofree nosync nounwind willreturn
declare void @llvm.lifetime.end.p0i8(i64 immarg, i8* nocapture) #1


!llvm.module.flags = !{!0, !1, !2, !3}
!llvm.ident = !{!4}

!0 = !{i32 1, !"wchar_size", i32 4}
!1 = !{i32 7, !"PIC Level", i32 2}
!2 = !{i32 7, !"PIE Level", i32 2}
!3 = !{i32 7, !"uwtable", i32 1}
!4 = !{!"clang version 13.0.0"}
!5 = !{!6, !6, i64 0}
!6 = !{!"omnipotent char", !7, i64 0}
!7 = !{!"Simple C/C++ TBAA"}
!8 = distinct !{!8, !9}
!9 = !{!"llvm.loop.mustprogress"}
